target datalayout = "e-m:e-p270:32:32-p271:32:32-p272:64:64-i64:64-i128:128-f80:128-n8:16:32:64-S128"
target triple = "x86_64-pc-linux-gnu"

%struct.ffc_params_st = type { ptr, ptr, ptr, ptr, ptr, i64, i32, i32, i32, i32, i32, ptr, ptr, i32 }

@.str.9 = private unnamed_addr constant [36 x i8] c"../openssl/test/ffc_internal_test.c\00", align 1
@.str.13 = private unnamed_addr constant [82 x i8] c"ossl_ffc_params_FIPS186_4_validate(NULL, &params, FFC_PARAM_TYPE_DSA, &res, NULL)\00", align 1
@.str.18 = private unnamed_addr constant [74 x i8] c"p = BN_bin2bn(dsa_2048_224_sha256_p, sizeof(dsa_2048_224_sha256_p), NULL)\00", align 1
@.str.19 = private unnamed_addr constant [74 x i8] c"q = BN_bin2bn(dsa_2048_224_sha256_q, sizeof(dsa_2048_224_sha256_q), NULL)\00", align 1
@dsa_2048_224_sha256_q = internal constant [28 x i8] c"\B0\DF\A1{\A4wd\0E\B9(\BB\BC\D4`\02\AF!\8C\B0i\0F\8A{\C6\80\CB\0AE", align 16
@.str.20 = private unnamed_addr constant [74 x i8] c"g = BN_bin2bn(dsa_2048_224_sha256_g, sizeof(dsa_2048_224_sha256_g), NULL)\00", align 1
@.str.21 = private unnamed_addr constant [7 x i8] c"SHA256\00", align 1

; Function Attrs: nounwind uwtable
define internal i32 @ffc_params_validate_g_unverified_test() #0 {
  %1 = alloca i32, align 4
  %2 = alloca i32, align 4
  %3 = alloca %struct.ffc_params_st, align 8
  %4 = alloca ptr, align 8
  %5 = alloca ptr, align 8
  %6 = alloca ptr, align 8
  %7 = alloca ptr, align 8
  %8 = alloca ptr, align 8
  call void @llvm.lifetime.start.p0(i64 4, ptr %1) #3
  store i32 0, ptr %1, align 4, !tbaa !4
  call void @llvm.lifetime.start.p0(i64 4, ptr %2) #3
  call void @llvm.lifetime.start.p0(i64 96, ptr %3) #3
  call void @llvm.lifetime.start.p0(i64 8, ptr %4) #3
  store ptr null, ptr %4, align 8, !tbaa !8
  call void @llvm.lifetime.start.p0(i64 8, ptr %5) #3
  store ptr null, ptr %5, align 8, !tbaa !8
  call void @llvm.lifetime.start.p0(i64 8, ptr %6) #3
  store ptr null, ptr %6, align 8, !tbaa !8
  call void @llvm.lifetime.start.p0(i64 8, ptr %7) #3
  store ptr null, ptr %7, align 8, !tbaa !8
  call void @llvm.lifetime.start.p0(i64 8, ptr %8) #3
  store ptr null, ptr %8, align 8, !tbaa !8
  call void @ossl_ffc_params_init(ptr noundef %3)
  %9 = call ptr @BN_bin2bn(ptr noundef @dsa_2048_224_sha256_p, i32 noundef 256, ptr noundef null)
  store ptr %9, ptr %4, align 8, !tbaa !8
  %10 = call i32 @test_ptr(ptr noundef @.str.9, i32 noundef 184, ptr noundef @.str.18, ptr noundef %9)
  %11 = icmp ne i32 %10, 0
  br i1 %11, label %13, label %12

12:                                               ; preds = %0
  br label %73

13:                                               ; preds = %0
  %14 = load ptr, ptr %4, align 8, !tbaa !8
  store ptr %14, ptr %7, align 8, !tbaa !8
  %15 = call ptr @BN_bin2bn(ptr noundef @dsa_2048_224_sha256_q, i32 noundef 28, ptr noundef null)
  store ptr %15, ptr %5, align 8, !tbaa !8
  %16 = call i32 @test_ptr(ptr noundef @.str.9, i32 noundef 188, ptr noundef @.str.19, ptr noundef %15)
  %17 = icmp ne i32 %16, 0
  br i1 %17, label %19, label %18

18:                                               ; preds = %13
  br label %73

19:                                               ; preds = %13
  %20 = call ptr @BN_bin2bn(ptr noundef @dsa_2048_224_sha256_g, i32 noundef 256, ptr noundef null)
  store ptr %20, ptr %6, align 8, !tbaa !8
  %21 = call i32 @test_ptr(ptr noundef @.str.9, i32 noundef 191, ptr noundef @.str.20, ptr noundef %20)
  %22 = icmp ne i32 %21, 0
  br i1 %22, label %24, label %23

23:                                               ; preds = %19
  br label %73

24:                                               ; preds = %19
  %25 = load ptr, ptr %6, align 8, !tbaa !8
  store ptr %25, ptr %8, align 8, !tbaa !8
  %26 = load ptr, ptr %4, align 8, !tbaa !8
  %27 = load ptr, ptr %5, align 8, !tbaa !8
  call void @ossl_ffc_params_set0_pqg(ptr noundef %3, ptr noundef %26, ptr noundef %27, ptr noundef null)
  store ptr null, ptr %4, align 8, !tbaa !8
  store ptr null, ptr %5, align 8, !tbaa !8
  call void @ossl_ffc_params_set_flags(ptr noundef %3, i32 noundef 2)
  call void @ossl_ffc_set_digest(ptr noundef %3, ptr noundef @.str.21, ptr noundef null)
  %28 = call i32 @ossl_ffc_params_FIPS186_4_validate(ptr noundef null, ptr noundef %3, i32 noundef 0, ptr noundef %2, ptr noundef null)
  %29 = icmp ne i32 %28, 0
  %30 = zext i1 %29 to i32
  %31 = call i32 @test_false(ptr noundef @.str.9, i32 noundef 204, ptr noundef @.str.13, i32 noundef %30)
  %32 = icmp ne i32 %31, 0
  br i1 %32, label %34, label %33

33:                                               ; preds = %24
  br label %73

34:                                               ; preds = %24
  %35 = load ptr, ptr %4, align 8, !tbaa !8
  %36 = load ptr, ptr %5, align 8, !tbaa !8
  %37 = load ptr, ptr %6, align 8, !tbaa !8
  call void @ossl_ffc_params_set0_pqg(ptr noundef %3, ptr noundef %35, ptr noundef %36, ptr noundef %37)
  store ptr null, ptr %6, align 8, !tbaa !8
  %38 = call i32 @ossl_ffc_params_FIPS186_4_validate(ptr noundef null, ptr noundef %3, i32 noundef 0, ptr noundef %2, ptr noundef null)
  %39 = icmp ne i32 %38, 0
  %40 = zext i1 %39 to i32
  %41 = call i32 @test_true(ptr noundef @.str.9, i32 noundef 211, ptr noundef @.str.13, i32 noundef %40)
  %42 = icmp ne i32 %41, 0
  br i1 %42, label %44, label %43

43:                                               ; preds = %34
  br label %73

44:                                               ; preds = %34
  %45 = load ptr, ptr %8, align 8, !tbaa !8
  %46 = call i32 @BN_add_word(ptr noundef %45, i64 noundef 1)
  %47 = call i32 @ossl_ffc_params_FIPS186_4_validate(ptr noundef null, ptr noundef %3, i32 noundef 0, ptr noundef %2, ptr noundef null)
  %48 = icmp ne i32 %47, 0
  %49 = zext i1 %48 to i32
  %50 = call i32 @test_false(ptr noundef @.str.9, i32 noundef 218, ptr noundef @.str.13, i32 noundef %49)
  %51 = icmp ne i32 %50, 0
  br i1 %51, label %53, label %52

52:                                               ; preds = %44
  br label %73

53:                                               ; preds = %44
  %54 = load ptr, ptr %8, align 8, !tbaa !8
  %55 = call i32 @BN_set_word(ptr noundef %54, i64 noundef 1)
  %56 = call i32 @ossl_ffc_params_FIPS186_4_validate(ptr noundef null, ptr noundef %3, i32 noundef 0, ptr noundef %2, ptr noundef null)
  %57 = icmp ne i32 %56, 0
  %58 = zext i1 %57 to i32
  %59 = call i32 @test_false(ptr noundef @.str.9, i32 noundef 225, ptr noundef @.str.13, i32 noundef %58)
  %60 = icmp ne i32 %59, 0
  br i1 %60, label %62, label %61

61:                                               ; preds = %53
  br label %73

62:                                               ; preds = %53
  %63 = load ptr, ptr %8, align 8, !tbaa !8
  %64 = load ptr, ptr %7, align 8, !tbaa !8
  %65 = call ptr @BN_copy(ptr noundef %63, ptr noundef %64)
  %66 = call i32 @ossl_ffc_params_FIPS186_4_validate(ptr noundef null, ptr noundef %3, i32 noundef 0, ptr noundef %2, ptr noundef null)
  %67 = icmp ne i32 %66, 0
  %68 = zext i1 %67 to i32
  %69 = call i32 @test_false(ptr noundef @.str.9, i32 noundef 232, ptr noundef @.str.13, i32 noundef %68)
  %70 = icmp ne i32 %69, 0
  br i1 %70, label %72, label %71

71:                                               ; preds = %62
  br label %73

72:                                               ; preds = %62
  store i32 1, ptr %1, align 4, !tbaa !4
  br label %73

73:                                               ; preds = %72, %71, %61, %52, %43, %33, %23, %18, %12
  call void @ossl_ffc_params_cleanup(ptr noundef %3)
  %74 = load ptr, ptr %4, align 8, !tbaa !8
  call void @BN_free(ptr noundef %74)
  %75 = load ptr, ptr %5, align 8, !tbaa !8
  call void @BN_free(ptr noundef %75)
  %76 = load ptr, ptr %6, align 8, !tbaa !8
  call void @BN_free(ptr noundef %76)
  %77 = load i32, ptr %1, align 4, !tbaa !4
  call void @llvm.lifetime.end.p0(i64 8, ptr %8) #3
  call void @llvm.lifetime.end.p0(i64 8, ptr %7) #3
  call void @llvm.lifetime.end.p0(i64 8, ptr %6) #3
  call void @llvm.lifetime.end.p0(i64 8, ptr %5) #3
  call void @llvm.lifetime.end.p0(i64 8, ptr %4) #3
  call void @llvm.lifetime.end.p0(i64 96, ptr %3) #3
  call void @llvm.lifetime.end.p0(i64 4, ptr %2) #3
  call void @llvm.lifetime.end.p0(i64 4, ptr %1) #3
  ret i32 %77
}