; Function Attrs: nounwind uwtable
define internal range(i32 0, 2) i32 @ffc_params_validate_g_unverified_test() #0 {
  %1 = alloca i32, align 4
  %2 = alloca %struct.ffc_params_st, align 8
  call void @llvm.lifetime.start.p0(i64 4, ptr nonnull %1) #3
  call void @llvm.lifetime.start.p0(i64 96, ptr nonnull %2) #3
  call void @ossl_ffc_params_init(ptr noundef nonnull %2) #3
  %3 = call ptr @BN_bin2bn(ptr noundef nonnull @dsa_2048_224_sha256_p, i32 noundef 256, ptr noundef null) #3
  %4 = call i32 @test_ptr(ptr noundef nonnull @.str.9, i32 noundef 184, ptr noundef nonnull @.str.18, ptr noundef %3) #3
  %.not = icmp eq i32 %4, 0
  br i1 %.not, label %39, label %5

5:                                                ; preds = %0
  %6 = call ptr @BN_bin2bn(ptr noundef nonnull @dsa_2048_224_sha256_q, i32 noundef 28, ptr noundef null) #3
  %7 = call i32 @test_ptr(ptr noundef nonnull @.str.9, i32 noundef 188, ptr noundef nonnull @.str.19, ptr noundef %6) #3
  %.not17 = icmp eq i32 %7, 0
  br i1 %.not17, label %39, label %8

8:                                                ; preds = %5
  %9 = call ptr @BN_bin2bn(ptr noundef nonnull @dsa_2048_224_sha256_g, i32 noundef 256, ptr noundef null) #3
  %10 = call i32 @test_ptr(ptr noundef nonnull @.str.9, i32 noundef 191, ptr noundef nonnull @.str.20, ptr noundef %9) #3
  %.not18 = icmp eq i32 %10, 0
  br i1 %.not18, label %39, label %11

11:                                               ; preds = %8
  call void @ossl_ffc_params_set0_pqg(ptr noundef nonnull %2, ptr noundef %3, ptr noundef %6, ptr noundef null) #3
  call void @ossl_ffc_params_set_flags(ptr noundef nonnull %2, i32 noundef 2) #3
  call void @ossl_ffc_set_digest(ptr noundef nonnull %2, ptr noundef nonnull @.str.21, ptr noundef null) #3
  %12 = call i32 @ossl_ffc_params_FIPS186_4_validate(ptr noundef null, ptr noundef nonnull %2, i32 noundef 0, ptr noundef nonnull %1, ptr noundef null) #3
  %13 = icmp ne i32 %12, 0
  %14 = zext i1 %13 to i32
  %15 = call i32 @test_false(ptr noundef nonnull @.str.9, i32 noundef 204, ptr noundef nonnull @.str.13, i32 noundef %14) #3
  %.not19 = icmp eq i32 %15, 0
  br i1 %.not19, label %39, label %16

16:                                               ; preds = %11
  call void @ossl_ffc_params_set0_pqg(ptr noundef nonnull %2, ptr noundef null, ptr noundef null, ptr noundef %9) #3
  %17 = call i32 @ossl_ffc_params_FIPS186_4_validate(ptr noundef null, ptr noundef nonnull %2, i32 noundef 0, ptr noundef nonnull %1, ptr noundef null) #3
  %18 = icmp ne i32 %17, 0
  %19 = zext i1 %18 to i32
  %20 = call i32 @test_true(ptr noundef nonnull @.str.9, i32 noundef 211, ptr noundef nonnull @.str.13, i32 noundef %19) #3
  %.not20 = icmp eq i32 %20, 0
  br i1 %.not20, label %39, label %21

21:                                               ; preds = %16
  %22 = call i32 @BN_add_word(ptr noundef %9, i64 noundef 1) #3
  %23 = call i32 @ossl_ffc_params_FIPS186_4_validate(ptr noundef null, ptr noundef nonnull %2, i32 noundef 0, ptr noundef nonnull %1, ptr noundef null) #3
  %24 = icmp ne i32 %23, 0
  %25 = zext i1 %24 to i32
  %26 = call i32 @test_false(ptr noundef nonnull @.str.9, i32 noundef 218, ptr noundef nonnull @.str.13, i32 noundef %25) #3
  %.not21 = icmp eq i32 %26, 0
  br i1 %.not21, label %39, label %27

27:                                               ; preds = %21
  %28 = call i32 @BN_set_word(ptr noundef %9, i64 noundef 1) #3
  %29 = call i32 @ossl_ffc_params_FIPS186_4_validate(ptr noundef null, ptr noundef nonnull %2, i32 noundef 0, ptr noundef nonnull %1, ptr noundef null) #3
  %30 = icmp ne i32 %29, 0
  %31 = zext i1 %30 to i32
  %32 = call i32 @test_false(ptr noundef nonnull @.str.9, i32 noundef 225, ptr noundef nonnull @.str.13, i32 noundef %31) #3
  %.not22 = icmp eq i32 %32, 0
  br i1 %.not22, label %39, label %33

33:                                               ; preds = %27
  %34 = call ptr @BN_copy(ptr noundef %9, ptr noundef %3) #3
  %35 = call i32 @ossl_ffc_params_FIPS186_4_validate(ptr noundef null, ptr noundef nonnull %2, i32 noundef 0, ptr noundef nonnull %1, ptr noundef null) #3
  %36 = icmp ne i32 %35, 0
  %37 = zext i1 %36 to i32
  %38 = call i32 @test_false(ptr noundef nonnull @.str.9, i32 noundef 232, ptr noundef nonnull @.str.13, i32 noundef %37) #3
  %.not23 = icmp ne i32 %38, 0
  %spec.select = zext i1 %.not23 to i32
  br label %39

39:                                               ; preds = %33, %27, %21, %16, %11, %8, %5, %0
  %.016 = phi i32 [ 0, %27 ], [ 0, %21 ], [ 0, %16 ], [ 0, %11 ], [ 0, %8 ], [ 0, %5 ], [ 0, %0 ], [ %spec.select, %33 ]
  %.015 = phi ptr [ null, %27 ], [ null, %21 ], [ null, %16 ], [ null, %11 ], [ %3, %8 ], [ %3, %5 ], [ %3, %0 ], [ null, %33 ]
  %.014 = phi ptr [ null, %27 ], [ null, %21 ], [ null, %16 ], [ null, %11 ], [ %6, %8 ], [ %6, %5 ], [ null, %0 ], [ null, %33 ]
  %.0 = phi ptr [ null, %27 ], [ null, %21 ], [ null, %16 ], [ %9, %11 ], [ %9, %8 ], [ null, %5 ], [ null, %0 ], [ null, %33 ]
  call void @ossl_ffc_params_cleanup(ptr noundef nonnull %2) #3
  call void @BN_free(ptr noundef %.015) #3
  call void @BN_free(ptr noundef %.014) #3
  call void @BN_free(ptr noundef %.0) #3
  call void @llvm.lifetime.end.p0(i64 96, ptr nonnull %2) #3
  call void @llvm.lifetime.end.p0(i64 4, ptr nonnull %1) #3
  ret i32 %.016
}